; Function Attrs: mustprogress nounwind uwtable
define hidden noundef zeroext i1 @_ZN14GenerateOopMap21rewrite_load_or_storeEP14BytecodeStreamN9Bytecodes4CodeES3_j(ptr noundef nonnull align 8 dereferenceable(176) %0, ptr nocapture noundef readonly %1, i32 noundef %2, i32 noundef %3, i32 noundef %4) local_unnamed_addr #0 align 2 {
  %6 = alloca [4 x i8], align 1
  %7 = getelementptr inbounds i8, ptr %0, i64 8
  %8 = getelementptr inbounds i8, ptr %1, i64 8
  %9 = load ptr, ptr %8, align 8
  %10 = getelementptr inbounds i8, ptr %9, i64 8
  %11 = load ptr, ptr %10, align 8
  %12 = getelementptr inbounds i8, ptr %11, i64 56
  %13 = getelementptr inbounds i8, ptr %1, i64 24
  %14 = load i32, ptr %13, align 8
  %15 = sext i32 %14 to i64
  %16 = getelementptr inbounds i8, ptr %12, i64 %15
  %17 = load i8, ptr %16, align 1
  %18 = zext i8 %17 to i32
  %.not.i.i = icmp eq i8 %17, -54
  br i1 %.not.i.i, label %19, label %_ZN9Bytecodes7code_atEPK6MethodPh.exit.i

19:                                               ; preds = %5
  %20 = load ptr, ptr %7, align 8
  %21 = tail call noundef i32 @_ZN9Bytecodes22non_breakpoint_code_atEPK6MethodPh(ptr noundef %20, ptr noundef nonnull %16) #18
  br label %_ZN9Bytecodes7code_atEPK6MethodPh.exit.i

_ZN9Bytecodes7code_atEPK6MethodPh.exit.i:         ; preds = %19, %5
  %22 = phi i32 [ %21, %19 ], [ %18, %5 ]
  %23 = icmp ult i32 %22, 239
  br i1 %23, label %_ZN9Bytecodes10length_forENS_4CodeE.exit.i.i, label %_ZN9Bytecodes10length_forENS_4CodeE.exit.thread.i.i

_ZN9Bytecodes10length_forENS_4CodeE.exit.i.i:     ; preds = %_ZN9Bytecodes7code_atEPK6MethodPh.exit.i
  %24 = zext nneg i32 %22 to i64
  %25 = getelementptr inbounds [239 x i8], ptr @_ZN9Bytecodes8_lengthsE, i64 0, i64 %24
  %26 = load i8, ptr %25, align 1
  %27 = and i8 %26, 15
  %28 = zext nneg i8 %27 to i32
  %.not.i3.i = icmp eq i8 %27, 0
  br i1 %.not.i3.i, label %_ZN9Bytecodes10length_forENS_4CodeE.exit.thread.i.i, label %_ZN9Bytecodes9length_atEP6MethodPh.exit

_ZN9Bytecodes10length_forENS_4CodeE.exit.thread.i.i: ; preds = %_ZN9Bytecodes10length_forENS_4CodeE.exit.i.i, %_ZN9Bytecodes7code_atEPK6MethodPh.exit.i
  %29 = tail call noundef i32 @_ZN9Bytecodes17special_length_atENS_4CodeEPhS1_(i32 noundef %22, ptr noundef nonnull %16, ptr noundef null) #18
  br label %_ZN9Bytecodes9length_atEP6MethodPh.exit

_ZN9Bytecodes9length_atEP6MethodPh.exit:          ; preds = %_ZN9Bytecodes10length_forENS_4CodeE.exit.i.i, %_ZN9Bytecodes10length_forENS_4CodeE.exit.thread.i.i
  %30 = phi i32 [ %29, %_ZN9Bytecodes10length_forENS_4CodeE.exit.thread.i.i ], [ %28, %_ZN9Bytecodes10length_forENS_4CodeE.exit.i.i ]
  %31 = icmp eq i32 %30, 4
  br i1 %31, label %36, label %32

32:                                               ; preds = %_ZN9Bytecodes9length_atEP6MethodPh.exit
  %33 = icmp ult i32 %4, 4
  br i1 %33, label %36, label %34

34:                                               ; preds = %32
  %35 = icmp ult i32 %4, 256
  %.31 = select i1 %35, i32 2, i32 4
  br label %36

36:                                               ; preds = %34, %32, %_ZN9Bytecodes9length_atEP6MethodPh.exit
  %37 = phi i1 [ false, %_ZN9Bytecodes9length_atEP6MethodPh.exit ], [ true, %32 ], [ false, %34 ]
  %38 = phi i1 [ false, %_ZN9Bytecodes9length_atEP6MethodPh.exit ], [ false, %32 ], [ %35, %34 ]
  %.028 = phi i32 [ 4, %_ZN9Bytecodes9length_atEP6MethodPh.exit ], [ 1, %32 ], [ %.31, %34 ]
  %39 = icmp ne i32 %.028, %30
  br i1 %39, label %44, label %40

40:                                               ; preds = %36
  %41 = load ptr, ptr %7, align 8
  %42 = load i32, ptr %13, align 8
  %43 = tail call noundef ptr @_ZNK6Method8bcp_fromEi(ptr noundef nonnull align 8 dereferenceable(88) %41, i32 noundef %42) #18
  br label %44

44:                                               ; preds = %36, %40
  %.0 = phi ptr [ %43, %40 ], [ %6, %36 ]
  br i1 %37, label %45, label %48

45:                                               ; preds = %44
  %46 = add i32 %4, %3
  %47 = trunc i32 %46 to i8
  store i8 %47, ptr %.0, align 1
  br label %_ZN5Bytes11put_Java_u2EPht.exit

48:                                               ; preds = %44
  br i1 %38, label %49, label %53

49:                                               ; preds = %48
  %50 = trunc i32 %2 to i8
  store i8 %50, ptr %.0, align 1
  %51 = trunc i32 %4 to i8
  %52 = getelementptr inbounds i8, ptr %.0, i64 1
  store i8 %51, ptr %52, align 1
  br label %_ZN5Bytes11put_Java_u2EPht.exit

53:                                               ; preds = %48
  store i8 -60, ptr %.0, align 1
  %54 = trunc i32 %2 to i8
  %55 = getelementptr inbounds i8, ptr %.0, i64 1
  store i8 %54, ptr %55, align 1
  %56 = getelementptr inbounds i8, ptr %.0, i64 2
  %57 = trunc i32 %4 to i16
  %58 = tail call noundef i16 @llvm.bswap.i16(i16 %57)
  %59 = ptrtoint ptr %56 to i64
  %60 = and i64 %59, 1
  %61 = icmp eq i64 %60, 0
  br i1 %61, label %62, label %63

62:                                               ; preds = %53
  store i16 %58, ptr %56, align 2
  br label %_ZN5Bytes11put_Java_u2EPht.exit

63:                                               ; preds = %53
  store i16 %58, ptr %56, align 1
  br label %_ZN5Bytes11put_Java_u2EPht.exit

_ZN5Bytes11put_Java_u2EPht.exit:                  ; preds = %63, %62, %49, %45
  br i1 %39, label %64, label %66

64:                                               ; preds = %_ZN5Bytes11put_Java_u2EPht.exit
  %65 = load i32, ptr %13, align 8
  call void @_ZN14GenerateOopMap20expand_current_instrEiiiPh(ptr noundef nonnull align 8 dereferenceable(176) %0, i32 noundef %65, i32 poison, i32 noundef %.028, ptr noundef nonnull %6)
  br label %66

66:                                               ; preds = %64, %_ZN5Bytes11put_Java_u2EPht.exit
  ret i1 %39
}